; Function Attrs: nounwind uwtable
define hidden void @X11_HandleButtonRelease(ptr readnone captures(none) %0, ptr noundef readonly captures(none) %1, i32 noundef %2, i32 noundef %3, i64 %4) local_unnamed_addr #1 {
  %6 = load ptr, ptr %1, align 8
  %7 = tail call i64 @SDL_GetTicksNS_REAL() #12
  %8 = and i32 %3, -4
  %switch = icmp eq i32 %8, 4
  br i1 %switch, label %X11_IsWheelEvent.exit.thread, label %X11_IsWheelEvent.exit

X11_IsWheelEvent.exit:                            ; preds = %5
  %9 = icmp sgt i32 %3, 7
  %10 = add nuw i32 %3, 252
  %spec.select = select i1 %9, i32 %10, i32 %3
  %11 = trunc i32 %spec.select to i8
  tail call void @SDL_SendMouseButton(i64 noundef %7, ptr noundef %6, i32 noundef %2, i8 noundef zeroext %11, i1 noundef zeroext false) #12
  br label %X11_IsWheelEvent.exit.thread

X11_IsWheelEvent.exit.thread:                     ; preds = %5, %X11_IsWheelEvent.exit
  ret void
}